(dp1
V\u000a
I11
sV!
I43
sV 
I5
sV$
I64
sV'
I36
sV&
I60
sV-
I47
sV,
I23
sV.
I26
sV3
I63
sV;
I41
sV:
I10
sV?
I32
sVA
I27
sVC
I6
sVB
I12
sVE
I50
sVD
I52
sVG
I57
sVF
I0
sVI
I38
sVH
I49
sVK
I58
sVJ
I56
sVM
I34
sVL
I37
sVO
I44
sVN
I39
sVQ
I59
sVP
I53
sVS
I29
sVR
I33
sVU
I51
sVT
I48
sVW
I35
sVV
I46
sVY
I30
sVX
I62
sVZ
I61
sVa
I19
sVc
I17
sVb
I42
sVe
I8
sVd
I18
sVg
I40
sVf
I13
sVi
I1
sVh
I22
sVk
I25
sVj
I45
sVm
I24
sVl
I28
sVo
I14
sVn
I9
sVq
I54
sVp
I16
sVs
I3
sVr
I2
sVu
I21
sVt
I4
sVw
I15
sVv
I31
sVy
I20
sVx
I55
sVz
I7
s.